target datalayout = "e-m:e-p270:32:32-p271:32:32-p272:64:64-i64:64-i128:128-f80:128-n8:16:32:64-S128"
target triple = "x86_64-pc-linux-gnu"

; Function Attrs: nounwind uwtable
define i32 @ff_vorbis_nth_root(i32 noundef %0, i32 noundef %1) #0 {
  %3 = alloca i32, align 4
  %4 = alloca i32, align 4
  %5 = alloca i32, align 4
  %6 = alloca i32, align 4
  %7 = alloca i32, align 4
  store i32 %0, ptr %3, align 4, !tbaa !4
  store i32 %1, ptr %4, align 4, !tbaa !4
  call void @llvm.lifetime.start.p0(i64 4, ptr %5) #6
  store i32 0, ptr %5, align 4, !tbaa !4
  call void @llvm.lifetime.start.p0(i64 4, ptr %6) #6
  call void @llvm.lifetime.start.p0(i64 4, ptr %7) #6
  br label %8

8:                                                ; preds = %25, %2
  %9 = load i32, ptr %5, align 4, !tbaa !4
  %10 = add i32 %9, 1
  store i32 %10, ptr %5, align 4, !tbaa !4
  store i32 0, ptr %6, align 4, !tbaa !4
  %11 = load i32, ptr %5, align 4, !tbaa !4
  store i32 %11, ptr %7, align 4, !tbaa !4
  br label %12

12:                                               ; preds = %21, %8
  %13 = load i32, ptr %6, align 4, !tbaa !4
  %14 = load i32, ptr %4, align 4, !tbaa !4
  %15 = sub i32 %14, 1
  %16 = icmp ult i32 %13, %15
  br i1 %16, label %17, label %24

17:                                               ; preds = %12
  %18 = load i32, ptr %5, align 4, !tbaa !4
  %19 = load i32, ptr %7, align 4, !tbaa !4
  %20 = mul i32 %19, %18
  store i32 %20, ptr %7, align 4, !tbaa !4
  br label %21

21:                                               ; preds = %17
  %22 = load i32, ptr %6, align 4, !tbaa !4
  %23 = add i32 %22, 1
  store i32 %23, ptr %6, align 4, !tbaa !4
  br label %12, !llvm.loop !8

24:                                               ; preds = %12
  br label %25

25:                                               ; preds = %24
  %26 = load i32, ptr %7, align 4, !tbaa !4
  %27 = load i32, ptr %3, align 4, !tbaa !4
  %28 = icmp ule i32 %26, %27
  br i1 %28, label %8, label %29, !llvm.loop !10

29:                                               ; preds = %25
  %30 = load i32, ptr %5, align 4, !tbaa !4
  %31 = sub i32 %30, 1
  call void @llvm.lifetime.end.p0(i64 4, ptr %7) #6
  call void @llvm.lifetime.end.p0(i64 4, ptr %6) #6
  call void @llvm.lifetime.end.p0(i64 4, ptr %5) #6
  ret i32 %31
}