; Function Attrs: nofree norecurse nosync nounwind memory(none) uwtable
define i32 @ff_vorbis_nth_root(i32 noundef %0, i32 noundef %1) local_unnamed_addr #0 {
  %3 = add i32 %1, -1
  %.not16 = icmp eq i32 %3, 0
  br i1 %.not16, label %.split.preheader, label %.lr.ph.us

.split.preheader:                                 ; preds = %2
  %4 = add i32 %0, 1
  %5 = tail call i32 @llvm.usub.sat.i32(i32 %4, i32 1)
  br label %.split15.us

.lr.ph.us:                                        ; preds = %2, %._crit_edge.us
  %.011.us = phi i32 [ %6, %._crit_edge.us ], [ 0, %2 ]
  %6 = add i32 %.011.us, 1
  br label %7

7:                                                ; preds = %.lr.ph.us, %7
  %.013.us = phi i32 [ %6, %.lr.ph.us ], [ %8, %7 ]
  %.01012.us = phi i32 [ 0, %.lr.ph.us ], [ %9, %7 ]
  %8 = mul i32 %.013.us, %6
  %9 = add nuw i32 %.01012.us, 1
  %exitcond.not = icmp eq i32 %9, %3
  br i1 %exitcond.not, label %._crit_edge.us, label %7, !llvm.loop !4

._crit_edge.us:                                   ; preds = %7
  %.not.us = icmp ugt i32 %8, %0
  br i1 %.not.us, label %.split15.us, label %.lr.ph.us, !llvm.loop !6

.split15.us:                                      ; preds = %._crit_edge.us, %.split.preheader
  %.us-phi = phi i32 [ %5, %.split.preheader ], [ %.011.us, %._crit_edge.us ]
  ret i32 %.us-phi
}